target datalayout = "e-m:e-p270:32:32-p271:32:32-p272:64:64-i64:64-i128:128-f80:128-n8:16:32:64-S128"
target triple = "x86_64-pc-linux-gnu"

%"class.duckdb::shared_ptr" = type { %"class.std::shared_ptr" }
%"class.std::shared_ptr" = type { %"class.std::__shared_ptr" }
%"class.std::__shared_ptr" = type { ptr, %"class.std::__shared_count" }
%"class.std::__shared_count" = type { ptr }
%"struct.duckdb::MetadataBlock" = type { %"class.duckdb::shared_ptr", i64, %"class.duckdb::vector" }
%"class.duckdb::vector" = type { %"class.std::vector" }
%"class.std::vector" = type { %"struct.std::_Vector_base" }
%"struct.std::_Vector_base" = type { %"struct.std::_Vector_base<unsigned char, std::allocator<unsigned char>>::_Vector_impl" }
%"struct.std::_Vector_base<unsigned char, std::allocator<unsigned char>>::_Vector_impl" = type { %"struct.std::_Vector_base<unsigned char, std::allocator<unsigned char>>::_Vector_impl_data" }
%"struct.std::_Vector_base<unsigned char, std::allocator<unsigned char>>::_Vector_impl_data" = type { ptr, ptr, ptr }

; Function Attrs: mustprogress nounwind uwtable
define linkonce_odr void @_ZNSt15__new_allocatorIhEC2Ev(ptr noundef nonnull align 1 dereferenceable(1) %0) unnamed_addr #0 comdat align 2 {
  %2 = alloca ptr, align 8
  store ptr %0, ptr %2, align 8, !tbaa !334
  ret void
}

; Function Attrs: mustprogress nounwind uwtable
define linkonce_odr void @_ZNSt12_Vector_baseIhSaIhEE17_Vector_impl_dataC2Ev(ptr noundef nonnull align 8 dereferenceable(24) %0) unnamed_addr #0 comdat align 2 {
  %2 = alloca ptr, align 8
  store ptr %0, ptr %2, align 8, !tbaa !336
  %3 = load ptr, ptr %2, align 8
  %4 = getelementptr inbounds nuw %"struct.std::_Vector_base<unsigned char, std::allocator<unsigned char>>::_Vector_impl_data", ptr %3, i32 0, i32 0
  store ptr null, ptr %4, align 8, !tbaa !145
  %5 = getelementptr inbounds nuw %"struct.std::_Vector_base<unsigned char, std::allocator<unsigned char>>::_Vector_impl_data", ptr %3, i32 0, i32 1
  store ptr null, ptr %5, align 8, !tbaa !103
  %6 = getelementptr inbounds nuw %"struct.std::_Vector_base<unsigned char, std::allocator<unsigned char>>::_Vector_impl_data", ptr %3, i32 0, i32 2
  store ptr null, ptr %6, align 8, !tbaa !338
  ret void
}

; Function Attrs: mustprogress nounwind uwtable
define linkonce_odr void @_ZNSaIhEC2Ev(ptr noundef nonnull align 1 dereferenceable(1) %0) unnamed_addr #0 comdat align 2 {
  %2 = alloca ptr, align 8
  store ptr %0, ptr %2, align 8, !tbaa !332
  %3 = load ptr, ptr %2, align 8
  call void @_ZNSt15__new_allocatorIhEC2Ev(ptr noundef nonnull align 1 dereferenceable(1) %3) #19
  ret void
}

; Function Attrs: mustprogress nounwind uwtable
define linkonce_odr void @_ZNSt12_Vector_baseIhSaIhEE12_Vector_implC2Ev(ptr noundef nonnull align 8 dereferenceable(24) %0) unnamed_addr #0 comdat align 2 {
  %2 = alloca ptr, align 8
  store ptr %0, ptr %2, align 8, !tbaa !330
  %3 = load ptr, ptr %2, align 8
  call void @_ZNSaIhEC2Ev(ptr noundef nonnull align 1 dereferenceable(1) %3) #19
  call void @_ZNSt12_Vector_baseIhSaIhEE17_Vector_impl_dataC2Ev(ptr noundef nonnull align 8 dereferenceable(24) %3) #19
  ret void
}

; Function Attrs: mustprogress nounwind uwtable
define linkonce_odr void @_ZNSt14__shared_countILN9__gnu_cxx12_Lock_policyE2EEC2Ev(ptr noundef nonnull align 8 dereferenceable(8) %0) unnamed_addr #0 comdat align 2 {
  %2 = alloca ptr, align 8
  store ptr %0, ptr %2, align 8, !tbaa !312
  %3 = load ptr, ptr %2, align 8
  %4 = getelementptr inbounds nuw %"class.std::__shared_count", ptr %3, i32 0, i32 0
  store ptr null, ptr %4, align 8, !tbaa !314
  ret void
}

; Function Attrs: mustprogress nounwind uwtable
define linkonce_odr void @_ZNSt12_Vector_baseIhSaIhEEC2Ev(ptr noundef nonnull align 8 dereferenceable(24) %0) unnamed_addr #0 comdat align 2 {
  %2 = alloca ptr, align 8
  store ptr %0, ptr %2, align 8, !tbaa !328
  %3 = load ptr, ptr %2, align 8
  %4 = getelementptr inbounds nuw %"struct.std::_Vector_base", ptr %3, i32 0, i32 0
  call void @_ZNSt12_Vector_baseIhSaIhEE12_Vector_implC2Ev(ptr noundef nonnull align 8 dereferenceable(24) %4) #19
  ret void
}

; Function Attrs: mustprogress nounwind uwtable
define linkonce_odr void @_ZNSt12__shared_ptrIN6duckdb11BlockHandleELN9__gnu_cxx12_Lock_policyE2EEC2Ev(ptr noundef nonnull align 8 dereferenceable(16) %0) unnamed_addr #0 comdat align 2 {
  %2 = alloca ptr, align 8
  store ptr %0, ptr %2, align 8, !tbaa !310
  %3 = load ptr, ptr %2, align 8
  %4 = getelementptr inbounds nuw %"class.std::__shared_ptr", ptr %3, i32 0, i32 0
  store ptr null, ptr %4, align 8, !tbaa !327
  %5 = getelementptr inbounds nuw %"class.std::__shared_ptr", ptr %3, i32 0, i32 1
  call void @_ZNSt14__shared_countILN9__gnu_cxx12_Lock_policyE2EEC2Ev(ptr noundef nonnull align 8 dereferenceable(8) %5) #19
  ret void
}

; Function Attrs: mustprogress nounwind uwtable
define linkonce_odr void @_ZNSt6vectorIhSaIhEEC2Ev(ptr noundef nonnull align 8 dereferenceable(24) %0) unnamed_addr #0 comdat align 2 {
  %2 = alloca ptr, align 8
  store ptr %0, ptr %2, align 8, !tbaa !45
  %3 = load ptr, ptr %2, align 8
  call void @_ZNSt12_Vector_baseIhSaIhEEC2Ev(ptr noundef nonnull align 8 dereferenceable(24) %3) #19
  ret void
}

; Function Attrs: mustprogress nounwind uwtable
define linkonce_odr void @_ZNSt10shared_ptrIN6duckdb11BlockHandleEEC2Ev(ptr noundef nonnull align 8 dereferenceable(16) %0) unnamed_addr #0 comdat align 2 {
  %2 = alloca ptr, align 8
  store ptr %0, ptr %2, align 8, !tbaa !325
  %3 = load ptr, ptr %2, align 8
  call void @_ZNSt12__shared_ptrIN6duckdb11BlockHandleELN9__gnu_cxx12_Lock_policyE2EEC2Ev(ptr noundef nonnull align 8 dereferenceable(16) %3) #19
  ret void
}

; Function Attrs: mustprogress nounwind uwtable
define linkonce_odr noundef ptr @_ZN6duckdb13data_ptr_castImEEPhPT_(ptr noundef %0) #0 comdat {
  %2 = alloca ptr, align 8
  store ptr %0, ptr %2, align 8, !tbaa !64
  %3 = load ptr, ptr %2, align 8, !tbaa !64
  ret ptr %3
}

; Function Attrs: mustprogress nounwind uwtable
define linkonce_odr noundef ptr @_ZN6duckdb13data_ptr_castIlEEPhPT_(ptr noundef %0) #0 comdat {
  %2 = alloca ptr, align 8
  store ptr %0, ptr %2, align 8, !tbaa !64
  %3 = load ptr, ptr %2, align 8, !tbaa !64
  ret ptr %3
}

; Function Attrs: mustprogress nounwind uwtable
define linkonce_odr void @_ZN6duckdb6vectorIhLb1EEC2Ev(ptr noundef nonnull align 8 dereferenceable(24) %0) unnamed_addr #0 comdat align 2 {
  %2 = alloca ptr, align 8
  store ptr %0, ptr %2, align 8, !tbaa !101
  %3 = load ptr, ptr %2, align 8
  call void @_ZNSt6vectorIhSaIhEEC2Ev(ptr noundef nonnull align 8 dereferenceable(24) %3) #19
  ret void
}

; Function Attrs: mustprogress nounwind uwtable
define linkonce_odr void @_ZN6duckdb10shared_ptrINS_11BlockHandleELb1EEC2Ev(ptr noundef nonnull align 8 dereferenceable(16) %0) unnamed_addr #0 comdat align 2 {
  %2 = alloca ptr, align 8
  store ptr %0, ptr %2, align 8, !tbaa !66
  %3 = load ptr, ptr %2, align 8
  %4 = getelementptr inbounds nuw %"class.duckdb::shared_ptr", ptr %3, i32 0, i32 0
  call void @_ZNSt10shared_ptrIN6duckdb11BlockHandleEEC2Ev(ptr noundef nonnull align 8 dereferenceable(16) %4) #19
  ret void
}

; Function Attrs: mustprogress uwtable
define linkonce_odr noundef i64 @_ZN6duckdb10ReadStream4ReadImEET_v(ptr noundef nonnull align 8 dereferenceable(8) %0) #2 comdat align 2 {
  %2 = alloca ptr, align 8
  %3 = alloca i64, align 8
  store ptr %0, ptr %2, align 8, !tbaa !140
  %4 = load ptr, ptr %2, align 8
  call void @llvm.lifetime.start.p0(i64 8, ptr %3) #19
  %5 = call noundef ptr @_ZN6duckdb13data_ptr_castImEEPhPT_(ptr noundef %3)
  %6 = load ptr, ptr %4, align 8, !tbaa !58
  %7 = getelementptr inbounds ptr, ptr %6, i64 0
  %8 = load ptr, ptr %7, align 8
  call void %8(ptr noundef nonnull align 8 dereferenceable(8) %4, ptr noundef %5, i64 noundef 8)
  %9 = load i64, ptr %3, align 8, !tbaa !16
  call void @llvm.lifetime.end.p0(i64 8, ptr %3) #19
  ret i64 %9
}

; Function Attrs: mustprogress uwtable
define linkonce_odr noundef i64 @_ZN6duckdb10ReadStream4ReadIlEET_v(ptr noundef nonnull align 8 dereferenceable(8) %0) #2 comdat align 2 {
  %2 = alloca ptr, align 8
  %3 = alloca i64, align 8
  store ptr %0, ptr %2, align 8, !tbaa !140
  %4 = load ptr, ptr %2, align 8
  call void @llvm.lifetime.start.p0(i64 8, ptr %3) #19
  %5 = call noundef ptr @_ZN6duckdb13data_ptr_castIlEEPhPT_(ptr noundef %3)
  %6 = load ptr, ptr %4, align 8, !tbaa !58
  %7 = getelementptr inbounds ptr, ptr %6, i64 0
  %8 = load ptr, ptr %7, align 8
  call void %8(ptr noundef nonnull align 8 dereferenceable(8) %4, ptr noundef %5, i64 noundef 8)
  %9 = load i64, ptr %3, align 8, !tbaa !16
  call void @llvm.lifetime.end.p0(i64 8, ptr %3) #19
  ret i64 %9
}

; Function Attrs: inlinehint mustprogress uwtable
define linkonce_odr void @_ZN6duckdb13MetadataBlockC2Ev(ptr noundef nonnull align 8 dereferenceable(48) %0) unnamed_addr #4 comdat align 2 {
  %2 = alloca ptr, align 8
  store ptr %0, ptr %2, align 8, !tbaa !20
  %3 = load ptr, ptr %2, align 8
  %4 = getelementptr inbounds nuw %"struct.duckdb::MetadataBlock", ptr %3, i32 0, i32 0
  call void @_ZN6duckdb10shared_ptrINS_11BlockHandleELb1EEC2Ev(ptr noundef nonnull align 8 dereferenceable(16) %4)
  %5 = getelementptr inbounds nuw %"struct.duckdb::MetadataBlock", ptr %3, i32 0, i32 2
  call void @_ZN6duckdb6vectorIhLb1EEC2Ev(ptr noundef nonnull align 8 dereferenceable(24) %5) #19
  ret void
}

; Function Attrs: mustprogress uwtable
define void @_ZN6duckdb13MetadataBlock4ReadERNS_10ReadStreamE(ptr dead_on_unwind noalias writable sret(%"struct.duckdb::MetadataBlock") align 8 %0, ptr noundef nonnull align 8 dereferenceable(8) %1) #2 align 2 personality ptr @__gxx_personality_v0 {
  %3 = alloca ptr, align 8
  %4 = alloca ptr, align 8
  %5 = alloca i1, align 1
  %6 = alloca ptr, align 8
  %7 = alloca i32, align 4
  %8 = alloca i64, align 8
  store ptr %0, ptr %3, align 8
  store ptr %1, ptr %4, align 8, !tbaa !140
  store i1 false, ptr %5, align 1
  call void @_ZN6duckdb13MetadataBlockC2Ev(ptr noundef nonnull align 8 dereferenceable(48) %0)
  %9 = load ptr, ptr %4, align 8, !tbaa !140
  %10 = invoke noundef i64 @_ZN6duckdb10ReadStream4ReadIlEET_v(ptr noundef nonnull align 8 dereferenceable(8) %9)
          to label %11 unwind label %19

11:                                               ; preds = %2
  %12 = getelementptr inbounds nuw %"struct.duckdb::MetadataBlock", ptr %0, i32 0, i32 1
  store i64 %10, ptr %12, align 8, !tbaa !61
  call void @llvm.lifetime.start.p0(i64 8, ptr %8) #19
  %13 = load ptr, ptr %4, align 8, !tbaa !140
  %14 = invoke noundef i64 @_ZN6duckdb10ReadStream4ReadImEET_v(ptr noundef nonnull align 8 dereferenceable(8) %13)
          to label %15 unwind label %23

15:                                               ; preds = %11
  store i64 %14, ptr %8, align 8, !tbaa !16
  %16 = load i64, ptr %8, align 8, !tbaa !16
  invoke void @_ZN6duckdb13MetadataBlock21FreeBlocksFromIntegerEm(ptr noundef nonnull align 8 dereferenceable(48) %0, i64 noundef %16)
          to label %17 unwind label %23

17:                                               ; preds = %15
  store i1 true, ptr %5, align 1
  call void @llvm.lifetime.end.p0(i64 8, ptr %8) #19
  %18 = load i1, ptr %5, align 1
  br i1 %18, label %28, label %27

19:                                               ; preds = %2
  %20 = landingpad { ptr, i32 }
          cleanup
  %21 = extractvalue { ptr, i32 } %20, 0
  store ptr %21, ptr %6, align 8
  %22 = extractvalue { ptr, i32 } %20, 1
  store i32 %22, ptr %7, align 4
  br label %29

23:                                               ; preds = %15, %11
  %24 = landingpad { ptr, i32 }
          cleanup
  %25 = extractvalue { ptr, i32 } %24, 0
  store ptr %25, ptr %6, align 8
  %26 = extractvalue { ptr, i32 } %24, 1
  store i32 %26, ptr %7, align 4
  call void @llvm.lifetime.end.p0(i64 8, ptr %8) #19
  br label %29

27:                                               ; preds = %17
  call void @_ZN6duckdb13MetadataBlockD2Ev(ptr noundef nonnull align 8 dereferenceable(48) %0) #19
  br label %28

28:                                               ; preds = %27, %17
  ret void

29:                                               ; preds = %23, %19
  call void @_ZN6duckdb13MetadataBlockD2Ev(ptr noundef nonnull align 8 dereferenceable(48) %0) #19
  br label %30

30:                                               ; preds = %29
  %31 = load ptr, ptr %6, align 8
  %32 = load i32, ptr %7, align 4
  %33 = insertvalue { ptr, i32 } poison, ptr %31, 0
  %34 = insertvalue { ptr, i32 } %33, i32 %32, 1
  resume { ptr, i32 } %34
}