; Function Attrs: mustprogress uwtable
define void @_ZN6duckdb13MetadataBlock4ReadERNS_10ReadStreamE(ptr dead_on_unwind noalias writable sret(%"struct.duckdb::MetadataBlock") align 8 initializes((0, 16), (24, 48)) %0, ptr noundef nonnull align 8 dereferenceable(8) %1) local_unnamed_addr #2 align 2 personality ptr @__gxx_personality_v0 {
  %3 = alloca i64, align 8
  %4 = alloca i64, align 8
  tail call void @llvm.memset.p0.i64(ptr noundef nonnull align 8 dereferenceable(48) %0, i8 0, i64 16, i1 false)
  %5 = getelementptr inbounds nuw i8, ptr %0, i64 24
  tail call void @llvm.memset.p0.i64(ptr noundef nonnull align 8 dereferenceable(24) %5, i8 0, i64 24, i1 false)
  call void @llvm.lifetime.start.p0(i64 8, ptr nonnull %4) #23
  %6 = load ptr, ptr %1, align 8, !tbaa !47
  %7 = load ptr, ptr %6, align 8
  invoke void %7(ptr noundef nonnull align 8 dereferenceable(8) %1, ptr noundef nonnull %4, i64 noundef 8)
          to label %8 unwind label %15

8:                                                ; preds = %2
  %9 = load i64, ptr %4, align 8, !tbaa !50
  call void @llvm.lifetime.end.p0(i64 8, ptr nonnull %4) #23
  %10 = getelementptr inbounds nuw i8, ptr %0, i64 16
  store i64 %9, ptr %10, align 8, !tbaa !100
  call void @llvm.lifetime.start.p0(i64 8, ptr nonnull %3) #23
  %11 = load ptr, ptr %1, align 8, !tbaa !47
  %12 = load ptr, ptr %11, align 8
  invoke void %12(ptr noundef nonnull align 8 dereferenceable(8) %1, ptr noundef nonnull %3, i64 noundef 8)
          to label %13 unwind label %17

13:                                               ; preds = %8
  %14 = load i64, ptr %3, align 8, !tbaa !50
  call void @llvm.lifetime.end.p0(i64 8, ptr nonnull %3) #23
  invoke void @_ZN6duckdb13MetadataBlock21FreeBlocksFromIntegerEm(ptr noundef nonnull align 8 dereferenceable(48) %0, i64 noundef %14)
          to label %19 unwind label %17

15:                                               ; preds = %2
  %16 = landingpad { ptr, i32 }
          cleanup
  br label %20

17:                                               ; preds = %8, %13
  %18 = landingpad { ptr, i32 }
          cleanup
  br label %20

19:                                               ; preds = %13
  ret void

20:                                               ; preds = %17, %15
  %.pn = phi { ptr, i32 } [ %18, %17 ], [ %16, %15 ]
  call void @_ZN6duckdb13MetadataBlockD2Ev(ptr noundef nonnull align 8 dereferenceable(48) %0) #23
  resume { ptr, i32 } %.pn
}